target datalayout = "e-m:e-p270:32:32-p271:32:32-p272:64:64-i64:64-i128:128-f80:128-n8:16:32:64-S128"
target triple = "x86_64-pc-linux-gnu"

%"class.pybind11::handle" = type { ptr }
%"struct.pybind11::detail::function_record" = type <{ ptr, ptr, ptr, %"class.std::vector.232", ptr, [3 x ptr], ptr, i8, i16, i8, i16, i16, i16, [6 x i8], ptr, %"class.pybind11::handle", %"class.pybind11::handle", ptr }>
%"class.std::vector.232" = type { %"struct.std::_Vector_base.233" }
%"struct.std::_Vector_base.233" = type { %"struct.std::_Vector_base<pybind11::detail::argument_record, std::allocator<pybind11::detail::argument_record>>::_Vector_impl" }
%"struct.std::_Vector_base<pybind11::detail::argument_record, std::allocator<pybind11::detail::argument_record>>::_Vector_impl" = type { %"struct.std::_Vector_base<pybind11::detail::argument_record, std::allocator<pybind11::detail::argument_record>>::_Vector_impl_data" }
%"struct.std::_Vector_base<pybind11::detail::argument_record, std::allocator<pybind11::detail::argument_record>>::_Vector_impl_data" = type { ptr, ptr, ptr }
%class.anon.735 = type { i8 }

; Function Attrs: inlinehint mustprogress nounwind uwtable
define internal void @"_ZZN8pybind1112cpp_function10initializeIZZ38test_submodule_constants_and_functionsRNS_7module_EENK3$_0clES2_EUliE_mJiEJNS_4nameENS_5scopeENS_7siblingENS_7kw_onlyENS_3argEEEEvOT_PFT0_DpT1_EDpRKT2_ENKUlPNS_6detail15function_recordEE0_clESO_"(ptr noundef nonnull align 1 dereferenceable(1) %0, ptr noundef %1) #0 align 2 {
  %3 = alloca ptr, align 8
  %4 = alloca ptr, align 8
  store ptr %0, ptr %3, align 8, !tbaa !105
  store ptr %1, ptr %4, align 8, !tbaa !797
  %5 = load ptr, ptr %4, align 8, !tbaa !797
  %6 = getelementptr inbounds nuw %"struct.pybind11::detail::function_record", ptr %5, i32 0, i32 5
  %7 = getelementptr inbounds [3 x ptr], ptr %6, i64 0, i64 0
  %8 = load ptr, ptr %7, align 8, !tbaa !105
  %9 = icmp eq ptr %8, null
  br i1 %9, label %11, label %10

10:                                               ; preds = %2
  call void @_ZdlPvm(ptr noundef %8, i64 noundef 80) #30
  br label %11

11:                                               ; preds = %10, %2
  ret void
}

; Function Attrs: inlinehint mustprogress uwtable
define internal void @"_ZZN8pybind1112cpp_function10initializeIZZ38test_submodule_constants_and_functionsRNS_7module_EENK3$_0clES2_EUliE_mJiEJNS_4nameENS_5scopeENS_7siblingENS_7kw_onlyENS_3argEEEEvOT_PFT0_DpT1_EDpRKT2_ENUlPNS_6detail15function_recordEE0_8__invokeESO_"(ptr noundef %0) #7 align 2 {
  %2 = alloca ptr, align 8
  %3 = alloca %class.anon.735, align 1
  store ptr %0, ptr %2, align 8, !tbaa !797
  %4 = load ptr, ptr %2, align 8, !tbaa !797
  call void @"_ZZN8pybind1112cpp_function10initializeIZZ38test_submodule_constants_and_functionsRNS_7module_EENK3$_0clES2_EUliE_mJiEJNS_4nameENS_5scopeENS_7siblingENS_7kw_onlyENS_3argEEEEvOT_PFT0_DpT1_EDpRKT2_ENKUlPNS_6detail15function_recordEE0_clESO_"(ptr noundef nonnull align 1 dereferenceable(1) %3, ptr noundef %4)
  ret void
}