; Function Attrs: inlinehint mustprogress nounwind uwtable
define internal void @"_ZZN8pybind1112cpp_function10initializeIZZ38test_submodule_constants_and_functionsRNS_7module_EENK3$_0clES2_EUliE_mJiEJNS_4nameENS_5scopeENS_7siblingENS_7kw_onlyENS_3argEEEEvOT_PFT0_DpT1_EDpRKT2_ENUlPNS_6detail15function_recordEE0_8__invokeESO_"(ptr noundef readonly captures(none) %0) #0 align 2 {
  %2 = getelementptr i8, ptr %0, i64 56
  %.val = load ptr, ptr %2, align 8, !tbaa !117
  %3 = icmp eq ptr %.val, null
  br i1 %3, label %"_ZZN8pybind1112cpp_function10initializeIZZ38test_submodule_constants_and_functionsRNS_7module_EENK3$_0clES2_EUliE_mJiEJNS_4nameENS_5scopeENS_7siblingENS_7kw_onlyENS_3argEEEEvOT_PFT0_DpT1_EDpRKT2_ENKUlPNS_6detail15function_recordEE0_clESO_.exit", label %4

4:                                                ; preds = %1
  tail call void @_ZdlPvm(ptr noundef nonnull %.val, i64 noundef 80) #34
  br label %"_ZZN8pybind1112cpp_function10initializeIZZ38test_submodule_constants_and_functionsRNS_7module_EENK3$_0clES2_EUliE_mJiEJNS_4nameENS_5scopeENS_7siblingENS_7kw_onlyENS_3argEEEEvOT_PFT0_DpT1_EDpRKT2_ENKUlPNS_6detail15function_recordEE0_clESO_.exit"

"_ZZN8pybind1112cpp_function10initializeIZZ38test_submodule_constants_and_functionsRNS_7module_EENK3$_0clES2_EUliE_mJiEJNS_4nameENS_5scopeENS_7siblingENS_7kw_onlyENS_3argEEEEvOT_PFT0_DpT1_EDpRKT2_ENKUlPNS_6detail15function_recordEE0_clESO_.exit": ; preds = %1, %4
  ret void
}